; Function Attrs: null_pointer_is_valid sspstrong uwtable
define double @tvb_get_ntohieee_double(ptr noundef %0, i32 noundef %1) local_unnamed_addr #0 {
  %3 = add i32 %1, 4
  %4 = tail call fastcc ptr @fast_ensure_contiguous(ptr noundef %0, i32 noundef %3, i32 noundef 4)
  %5 = load i8, ptr %4, align 1
  %6 = zext i8 %5 to i64
  %7 = shl nuw nsw i64 %6, 24
  %8 = getelementptr i8, ptr %4, i64 1
  %9 = load i8, ptr %8, align 1
  %10 = zext i8 %9 to i64
  %11 = shl nuw nsw i64 %10, 16
  %12 = or disjoint i64 %11, %7
  %13 = getelementptr i8, ptr %4, i64 2
  %14 = load i8, ptr %13, align 1
  %15 = zext i8 %14 to i64
  %16 = shl nuw nsw i64 %15, 8
  %17 = or disjoint i64 %12, %16
  %18 = getelementptr i8, ptr %4, i64 3
  %19 = load i8, ptr %18, align 1
  %20 = zext i8 %19 to i64
  %.sroa.0.0.insert.ext = or disjoint i64 %17, %20
  %21 = tail call fastcc ptr @fast_ensure_contiguous(ptr noundef %0, i32 noundef %1, i32 noundef 4)
  %22 = load i8, ptr %21, align 1
  %23 = zext i8 %22 to i64
  %24 = shl nuw nsw i64 %23, 24
  %25 = getelementptr i8, ptr %21, i64 1
  %26 = load i8, ptr %25, align 1
  %27 = zext i8 %26 to i64
  %28 = shl nuw nsw i64 %27, 16
  %29 = or disjoint i64 %28, %24
  %30 = getelementptr i8, ptr %21, i64 2
  %31 = load i8, ptr %30, align 1
  %32 = zext i8 %31 to i64
  %33 = shl nuw nsw i64 %32, 8
  %34 = or disjoint i64 %29, %33
  %35 = getelementptr i8, ptr %21, i64 3
  %36 = load i8, ptr %35, align 1
  %37 = zext i8 %36 to i64
  %.sroa.0.4.insert.ext = or disjoint i64 %34, %37
  %.sroa.0.4.insert.shift = shl nuw i64 %.sroa.0.4.insert.ext, 32
  %.sroa.0.4.insert.insert = or disjoint i64 %.sroa.0.0.insert.ext, %.sroa.0.4.insert.shift
  %38 = bitcast i64 %.sroa.0.4.insert.insert to double
  ret double %38
}